; ModuleID = '2/696.c'
source_filename = "2/696.c"
target datalayout = "e-m:e-p270:32:32-p271:32:32-p272:64:64-i64:64-f80:128-n8:16:32:64-S128"
target triple = "x86_64-pc-linux-gnu"

%struct.anon = type { i32, [32 x i8] }

@.str = private unnamed_addr constant [3 x i8] c"%d\00", align 1
@.str.1 = private unnamed_addr constant [5 x i8] c"%d%s\00", align 1
@.str.2 = private unnamed_addr constant [7 x i8] c"%c\0A%d\0A\00", align 1
@.str.3 = private unnamed_addr constant [4 x i8] c"%d\0A\00", align 1

; Function Attrs: noinline nounwind uwtable
define dso_local i32 @main() #0 {
  %1 = alloca i32, align 4
  %2 = alloca i8, align 1
  %3 = alloca [255 x i32], align 16
  %4 = alloca i32, align 4
  %5 = alloca i32, align 4
  %6 = alloca i32, align 4
  %7 = alloca [1000 x %struct.anon], align 16
  store i32 0, i32* %1, align 4
  store i8 0, i8* %2, align 1
  %8 = getelementptr inbounds [255 x i32], [255 x i32]* %3, i64 0, i64 0
  %9 = bitcast i32* %8 to i8*
  call void @llvm.memset.p0i8.i64(i8* align 16 %9, i8 0, i64 1020, i1 false)
  %10 = call i32 (i8*, ...) @__isoc99_scanf(i8* getelementptr inbounds ([3 x i8], [3 x i8]* @.str, i64 0, i64 0), i32* %6)
  store i32 0, i32* %4, align 4
  br label %11

11:                                               ; preds = %68, %0
  %12 = load i32, i32* %4, align 4
  %13 = load i32, i32* %6, align 4
  %14 = icmp slt i32 %12, %13
  br i1 %14, label %15, label %71

15:                                               ; preds = %11
  %16 = load i32, i32* %4, align 4
  %17 = sext i32 %16 to i64
  %18 = getelementptr inbounds [1000 x %struct.anon], [1000 x %struct.anon]* %7, i64 0, i64 %17
  %19 = getelementptr inbounds %struct.anon, %struct.anon* %18, i32 0, i32 0
  %20 = load i32, i32* %4, align 4
  %21 = sext i32 %20 to i64
  %22 = getelementptr inbounds [1000 x %struct.anon], [1000 x %struct.anon]* %7, i64 0, i64 %21
  %23 = getelementptr inbounds %struct.anon, %struct.anon* %22, i32 0, i32 1
  %24 = getelementptr inbounds [32 x i8], [32 x i8]* %23, i64 0, i64 0
  %25 = call i32 (i8*, ...) @__isoc99_scanf(i8* getelementptr inbounds ([5 x i8], [5 x i8]* @.str.1, i64 0, i64 0), i32* %19, i8* %24)
  store i32 0, i32* %5, align 4
  br label %26

26:                                               ; preds = %64, %15
  %27 = load i32, i32* %4, align 4
  %28 = sext i32 %27 to i64
  %29 = getelementptr inbounds [1000 x %struct.anon], [1000 x %struct.anon]* %7, i64 0, i64 %28
  %30 = getelementptr inbounds %struct.anon, %struct.anon* %29, i32 0, i32 1
  %31 = load i32, i32* %5, align 4
  %32 = sext i32 %31 to i64
  %33 = getelementptr inbounds [32 x i8], [32 x i8]* %30, i64 0, i64 %32
  %34 = load i8, i8* %33, align 1
  %35 = icmp ne i8 %34, 0
  br i1 %35, label %36, label %67

36:                                               ; preds = %26
  %37 = load i32, i32* %4, align 4
  %38 = sext i32 %37 to i64
  %39 = getelementptr inbounds [1000 x %struct.anon], [1000 x %struct.anon]* %7, i64 0, i64 %38
  %40 = getelementptr inbounds %struct.anon, %struct.anon* %39, i32 0, i32 1
  %41 = load i32, i32* %5, align 4
  %42 = sext i32 %41 to i64
  %43 = getelementptr inbounds [32 x i8], [32 x i8]* %40, i64 0, i64 %42
  %44 = load i8, i8* %43, align 1
  %45 = sext i8 %44 to i64
  %46 = getelementptr inbounds [255 x i32], [255 x i32]* %3, i64 0, i64 %45
  %47 = load i32, i32* %46, align 4
  %48 = add nsw i32 %47, 1
  store i32 %48, i32* %46, align 4
  %49 = load i8, i8* %2, align 1
  %50 = sext i8 %49 to i64
  %51 = getelementptr inbounds [255 x i32], [255 x i32]* %3, i64 0, i64 %50
  %52 = load i32, i32* %51, align 4
  %53 = icmp sgt i32 %48, %52
  br i1 %53, label %54, label %63

54:                                               ; preds = %36
  %55 = load i32, i32* %4, align 4
  %56 = sext i32 %55 to i64
  %57 = getelementptr inbounds [1000 x %struct.anon], [1000 x %struct.anon]* %7, i64 0, i64 %56
  %58 = getelementptr inbounds %struct.anon, %struct.anon* %57, i32 0, i32 1
  %59 = load i32, i32* %5, align 4
  %60 = sext i32 %59 to i64
  %61 = getelementptr inbounds [32 x i8], [32 x i8]* %58, i64 0, i64 %60
  %62 = load i8, i8* %61, align 1
  store i8 %62, i8* %2, align 1
  br label %63

63:                                               ; preds = %54, %36
  br label %64

64:                                               ; preds = %63
  %65 = load i32, i32* %5, align 4
  %66 = add nsw i32 %65, 1
  store i32 %66, i32* %5, align 4
  br label %26

67:                                               ; preds = %26
  br label %68

68:                                               ; preds = %67
  %69 = load i32, i32* %4, align 4
  %70 = add nsw i32 %69, 1
  store i32 %70, i32* %4, align 4
  br label %11

71:                                               ; preds = %11
  %72 = load i8, i8* %2, align 1
  %73 = sext i8 %72 to i32
  %74 = load i8, i8* %2, align 1
  %75 = sext i8 %74 to i64
  %76 = getelementptr inbounds [255 x i32], [255 x i32]* %3, i64 0, i64 %75
  %77 = load i32, i32* %76, align 4
  %78 = call i32 (i8*, ...) @printf(i8* getelementptr inbounds ([7 x i8], [7 x i8]* @.str.2, i64 0, i64 0), i32 %73, i32 %77)
  store i32 0, i32* %4, align 4
  br label %79

79:                                               ; preds = %101, %71
  %80 = load i32, i32* %4, align 4
  %81 = load i32, i32* %6, align 4
  %82 = icmp slt i32 %80, %81
  br i1 %82, label %83, label %104

83:                                               ; preds = %79
  %84 = load i32, i32* %4, align 4
  %85 = sext i32 %84 to i64
  %86 = getelementptr inbounds [1000 x %struct.anon], [1000 x %struct.anon]* %7, i64 0, i64 %85
  %87 = getelementptr inbounds %struct.anon, %struct.anon* %86, i32 0, i32 1
  %88 = getelementptr inbounds [32 x i8], [32 x i8]* %87, i64 0, i64 0
  %89 = load i8, i8* %2, align 1
  %90 = sext i8 %89 to i32
  %91 = call i8* @strchr(i8* %88, i32 %90) #4
  %92 = icmp ne i8* %91, null
  br i1 %92, label %93, label %100

93:                                               ; preds = %83
  %94 = load i32, i32* %4, align 4
  %95 = sext i32 %94 to i64
  %96 = getelementptr inbounds [1000 x %struct.anon], [1000 x %struct.anon]* %7, i64 0, i64 %95
  %97 = getelementptr inbounds %struct.anon, %struct.anon* %96, i32 0, i32 0
  %98 = load i32, i32* %97, align 4
  %99 = call i32 (i8*, ...) @printf(i8* getelementptr inbounds ([4 x i8], [4 x i8]* @.str.3, i64 0, i64 0), i32 %98)
  br label %100

100:                                              ; preds = %93, %83
  br label %101

101:                                              ; preds = %100
  %102 = load i32, i32* %4, align 4
  %103 = add nsw i32 %102, 1
  store i32 %103, i32* %4, align 4
  br label %79

104:                                              ; preds = %79
  ret i32 0
}

; Function Attrs: argmemonly nounwind willreturn
declare void @llvm.memset.p0i8.i64(i8* nocapture writeonly, i8, i64, i1 immarg) #1

declare dso_local i32 @__isoc99_scanf(i8*, ...) #2

declare dso_local i32 @printf(i8*, ...) #2

; Function Attrs: nounwind readonly
declare dso_local i8* @strchr(i8*, i32) #3


!llvm.module.flags = !{!0}
!llvm.ident = !{!1}

!0 = !{i32 1, !"wchar_size", i32 4}
!1 = !{!"clang version 10.0.0-4ubuntu1 "}
